target datalayout = "e-m:e-p270:32:32-p271:32:32-p272:64:64-i64:64-i128:128-f80:128-n8:16:32:64-S128"
target triple = "x86_64-pc-linux-gnu"

%struct.dt_pthread_mutex_t = type { %union.pthread_mutex_t }
%union.pthread_mutex_t = type { %struct.__pthread_mutex_s }
%struct.__pthread_mutex_s = type { i32, i32, i32, i32, i32, i16, i16, %struct.__pthread_internal_list }
%struct.__pthread_internal_list = type { ptr, ptr }
%struct.dt_develop_t = type { i32, i32, i32, ptr, double, double, i32, i32, i32, i32, i32, double, i32, i32, i32, ptr, ptr, [8 x i8], %struct.dt_image_t, i32, i32, %struct.dt_pthread_mutex_t, i32, ptr, i32, ptr, i32, ptr, ptr, i32, ptr, ptr, ptr, ptr, i32, i32, ptr, ptr, ptr, ptr, i32, i32, i32, float, float, ptr, i32, %struct.anon.5, %struct.dt_dev_chroma_t, %struct.anon.8, %struct.anon.9, %struct.anon.10, %struct.anon.11, %struct.anon.12, %struct.anon.13, ptr, ptr, %struct.dt_dev_viewport_t, %struct.dt_dev_viewport_t, i32, i32, i32, ptr, [8 x i8] }
%struct.dt_image_t = type { i32, i32, float, float, float, float, float, float, float, [64 x i8], [64 x i8], [128 x i8], [64 x i8], [64 x i8], [64 x i8], [64 x i8], i64, i32, %union.dt_image_correction_data_t, [64 x i8], [64 x i8], [64 x i8], [128 x i8], i32, [256 x i8], i32, i32, i32, i32, i32, i32, i32, i32, i32, i32, float, i32, i32, i32, i32, i32, i32, i64, i64, i64, i64, i32, [12 x i8], %struct.dt_iop_buffer_dsc_t, [9 x float], ptr, i32, i32, %struct.dt_image_raw_parameters_t, %struct.dt_image_geoloc_t, %struct._color_harmony_t, i16, [4 x i16], i32, i32, float, float, [4 x float], [4 x [3 x float]], [4 x float], ptr, ptr, i32, i32, [8 x i8] }
%union.dt_image_correction_data_t = type { %struct.anon.0 }
%struct.anon.0 = type { i32, float, [11 x float], [11 x float], [11 x float], [11 x float], [11 x float] }
%struct.dt_iop_buffer_dsc_t = type { i32, i32, i32, [6 x [6 x i8]], %struct.anon.3, [12 x i8], %struct.anon.4, [4 x float], i32, [12 x i8] }
%struct.anon.3 = type { i16, i16 }
%struct.anon.4 = type { i32, [12 x i8], [4 x float] }
%struct.dt_image_raw_parameters_t = type { i32 }
%struct.dt_image_geoloc_t = type { double, double, double }
%struct._color_harmony_t = type { i32, i32, i32 }
%struct.anon.5 = type { %struct.dt_dev_proxy_exposure_t, ptr, %struct.anon.6, %struct.anon.7 }
%struct.dt_dev_proxy_exposure_t = type { ptr, ptr, ptr, ptr }
%struct.anon.6 = type { ptr, ptr, ptr, ptr, ptr, ptr, ptr, ptr, ptr }
%struct.anon.7 = type { ptr, ptr, ptr, ptr, ptr }
%struct.dt_dev_chroma_t = type { ptr, ptr, [4 x double], [4 x double], [4 x double], i32 }
%struct.anon.8 = type { ptr, ptr, ptr }
%struct.anon.9 = type { ptr, ptr, i32, i32, float, float, i32 }
%struct.anon.10 = type { ptr, ptr, i32, i32, i32, float }
%struct.anon.11 = type { ptr }
%struct.anon.12 = type { ptr, i32 }
%struct.anon.13 = type { ptr, ptr, ptr }
%struct.dt_dev_viewport_t = type { ptr, i32, i32, i32, i32, i32, double, double, double, i32, i32, i32, float, float, float, ptr }
%struct.dt_iop_module_t = type { i32, ptr, ptr, ptr, ptr, ptr, ptr, ptr, ptr, ptr, ptr, ptr, ptr, ptr, ptr, ptr, ptr, ptr, ptr, ptr, ptr, ptr, ptr, ptr, ptr, ptr, ptr, ptr, ptr, ptr, ptr, ptr, ptr, ptr, ptr, ptr, ptr, ptr, ptr, ptr, ptr, ptr, ptr, ptr, ptr, ptr, ptr, ptr, ptr, ptr, ptr, ptr, ptr, ptr, ptr, ptr, ptr, [20 x i8], i32, i32, i32, i32, i32, i32, i32, [8 x i8], [4 x float], [4 x float], [4 x float], [4 x float], [4 x float], [4 x float], ptr, %struct.dt_dev_histogram_stats_t, [4 x i32], i32, i32, ptr, i32, i32, ptr, ptr, i32, ptr, %struct.dt_pthread_mutex_t, ptr, ptr, ptr, ptr, %struct.anon.14, ptr, ptr, ptr, ptr, ptr, ptr, ptr, i32, ptr, ptr, ptr, ptr, ptr, ptr, ptr, i32, ptr, i32, [128 x i8], i32, ptr, ptr, i32, [12 x i8] }
%struct.dt_dev_histogram_stats_t = type { i32, i64, i32, i32 }
%struct.anon.14 = type { %struct.anon.15, %struct.anon.16 }
%struct.anon.15 = type { ptr, ptr }
%struct.anon.16 = type { ptr, i32 }

; Function Attrs: nounwind uwtable
define internal i32 @_brush_get_points_border(ptr noundef %0, ptr noundef %1, ptr noundef %2, ptr noundef %3, ptr noundef %4, ptr noundef %5, i32 noundef %6, ptr noundef %7) #0 {
  %9 = alloca i32, align 4
  %10 = alloca ptr, align 8
  %11 = alloca ptr, align 8
  %12 = alloca ptr, align 8
  %13 = alloca ptr, align 8
  %14 = alloca ptr, align 8
  %15 = alloca ptr, align 8
  %16 = alloca i32, align 4
  %17 = alloca ptr, align 8
  %18 = alloca double, align 8
  store ptr %0, ptr %10, align 8, !tbaa !109
  store ptr %1, ptr %11, align 8, !tbaa !10
  store ptr %2, ptr %12, align 8, !tbaa !120
  store ptr %3, ptr %13, align 8, !tbaa !32
  store ptr %4, ptr %14, align 8, !tbaa !120
  store ptr %5, ptr %15, align 8, !tbaa !32
  store i32 %6, ptr %16, align 4, !tbaa !6
  store ptr %7, ptr %17, align 8, !tbaa !122
  %19 = load i32, ptr %16, align 4, !tbaa !6
  %20 = icmp ne i32 %19, 0
  br i1 %20, label %21, label %25

21:                                               ; preds = %8
  %22 = load ptr, ptr %17, align 8, !tbaa !122
  %23 = icmp ne ptr %22, null
  br i1 %23, label %25, label %24

24:                                               ; preds = %21
  store i32 0, ptr %9, align 4
  br label %49

25:                                               ; preds = %21, %8
  call void @llvm.lifetime.start.p0(i64 8, ptr %18) #14
  %26 = load ptr, ptr %17, align 8, !tbaa !122
  %27 = icmp ne ptr %26, null
  br i1 %27, label %28, label %33

28:                                               ; preds = %25
  %29 = load ptr, ptr %17, align 8, !tbaa !122
  %30 = getelementptr inbounds nuw %struct.dt_iop_module_t, ptr %29, i32 0, i32 59
  %31 = load i32, ptr %30, align 16, !tbaa !123
  %32 = sitofp i32 %31 to float
  br label %34

33:                                               ; preds = %25
  br label %34

34:                                               ; preds = %33, %28
  %35 = phi reassoc nsz arcp contract afn float [ %32, %28 ], [ 0.000000e+00, %33 ]
  %36 = fpext reassoc nsz arcp contract afn float %35 to double
  store double %36, ptr %18, align 8, !tbaa !133
  %37 = load ptr, ptr %10, align 8, !tbaa !109
  %38 = load ptr, ptr %11, align 8, !tbaa !10
  %39 = load double, ptr %18, align 8, !tbaa !133
  %40 = load ptr, ptr %10, align 8, !tbaa !109
  %41 = getelementptr inbounds nuw %struct.dt_develop_t, ptr %40, i32 0, i32 16
  %42 = load ptr, ptr %41, align 16, !tbaa !134
  %43 = load ptr, ptr %12, align 8, !tbaa !120
  %44 = load ptr, ptr %13, align 8, !tbaa !32
  %45 = load ptr, ptr %14, align 8, !tbaa !120
  %46 = load ptr, ptr %15, align 8, !tbaa !32
  %47 = load i32, ptr %16, align 4, !tbaa !6
  %48 = call i32 @_brush_get_pts_border(ptr noundef %37, ptr noundef %38, double noundef %39, i32 noundef 0, ptr noundef %42, ptr noundef %43, ptr noundef %44, ptr noundef %45, ptr noundef %46, ptr noundef null, ptr noundef null, i32 noundef %47)
  store i32 %48, ptr %9, align 4
  call void @llvm.lifetime.end.p0(i64 8, ptr %18) #14
  br label %49

49:                                               ; preds = %34, %24
  %50 = load i32, ptr %9, align 4
  ret i32 %50
}